Certificate:
    Data:
        Version: 3 (0x2)
        Serial Number: 110 (0x6e)
    Signature Algorithm: sha1WithRSAEncryption
        Issuer: C=US, ST=Pennsylvania, L=Pittsburgh, O=CMU, OU=15-441, CN=15-441 CMU CA/emailAddress=staf-441@cs.cmu.edu
        Validity
            Not Before: Oct 10 00:19:18 2016 GMT
            Not After : Oct 10 00:19:18 2017 GMT
        Subject: C=US, ST=Pennsylvania, L=Pittsburgh, O=shaokunz Corp., OU=shaokunz Organizational Unit, CN=shaokunz/emailAddress=shaokunz@andrew.cmu.edu
        Subject Public Key Info:
            Public Key Algorithm: rsaEncryption
                Public-Key: (4096 bit)
                Modulus:
                    00:ed:70:b3:42:a4:db:4b:42:89:de:5a:67:da:f1:
                    08:de:ab:29:0f:d9:75:e4:9d:eb:0f:2a:4c:d1:c1:
                    2a:41:7c:2e:43:c6:6d:ab:c9:03:ce:29:5a:9d:9e:
                    dc:79:9b:78:e8:57:74:95:f2:73:34:0c:66:69:6c:
                    31:20:7a:24:ef:a9:da:7f:d6:32:ae:49:c2:47:1b:
                    52:da:8d:7f:4f:17:b9:66:f6:32:90:42:f6:42:2d:
                    77:4a:ff:2f:7d:88:0a:19:e2:97:8d:55:d5:8b:6b:
                    8b:99:ee:02:69:50:20:7f:f5:45:a6:51:41:12:4a:
                    55:3d:c4:4c:f7:f2:80:55:3e:cc:be:92:81:65:18:
                    be:dc:db:31:c8:35:da:3a:ce:6d:fd:f2:b8:3a:b6:
                    36:5e:11:56:86:6f:ae:71:fa:f4:bb:fb:a9:ef:f5:
                    35:89:e4:5e:89:51:46:69:1d:8a:5d:77:82:52:83:
                    51:b8:85:d8:f2:16:53:b6:53:21:34:11:4e:e9:8e:
                    e9:c5:31:ae:70:5c:26:57:2f:32:81:5f:84:79:cb:
                    20:5c:35:78:0a:5c:53:f1:88:3b:16:39:77:95:89:
                    2a:79:e1:35:5c:82:d7:6d:c4:7f:d5:91:6b:4f:73:
                    19:4f:fb:d6:ce:84:bc:59:49:85:cc:cc:94:24:88:
                    35:83:82:33:56:85:8a:4e:d9:a7:52:38:f3:85:46:
                    13:c4:20:f6:e0:ea:cd:e6:a4:3b:a1:33:5b:4a:99:
                    58:d8:29:9d:d8:84:38:cf:44:ef:d9:54:b5:fe:f3:
                    cb:e9:53:4c:f2:d0:45:1a:23:18:83:76:41:a1:26:
                    13:20:eb:2d:d5:e0:21:12:57:1f:22:51:89:65:9c:
                    0a:f4:be:42:f0:2c:e9:5f:0b:0e:f8:f5:0f:30:91:
                    b4:5b:f1:f7:10:16:04:a9:22:c0:99:3a:8b:6b:07:
                    d1:89:a9:8a:03:0e:3e:40:35:e6:dd:81:3f:99:d9:
                    9f:10:15:53:6d:34:d7:0a:a4:29:b3:2e:26:a8:6c:
                    58:3c:ac:12:ac:c2:4d:5c:97:f8:53:72:17:02:72:
                    1f:34:ef:4f:05:a5:d7:e3:91:47:2f:05:3a:64:0c:
                    09:b6:d7:f2:0e:3f:44:5a:b7:0c:1f:b6:b3:67:70:
                    84:23:7f:17:9f:4a:21:66:a7:f4:1a:6c:07:29:b8:
                    e7:25:85:a7:31:29:9e:0e:82:20:85:45:5d:20:27:
                    fd:e1:0d:00:c3:bb:38:bc:3d:5a:9e:a2:be:71:85:
                    5f:70:98:91:13:b2:47:f4:64:a0:59:70:36:dc:93:
                    5c:94:ea:d6:44:b3:86:4d:5c:df:3a:4b:e4:62:20:
                    3e:6b:1d
                Exponent: 65537 (0x10001)
        X509v3 extensions:
            X509v3 Basic Constraints: 
                CA:FALSE
            Netscape Comment: 
                15-441 CMU CA OpenSSL Generated Certificate
            X509v3 Subject Key Identifier: 
                7F:71:8D:CA:90:A8:18:3D:4B:1A:56:F9:7F:8A:33:F0:C2:A4:2C:2E
            X509v3 Authority Key Identifier: 
                keyid:88:A4:AA:5C:48:64:CD:34:1B:FD:9F:69:F6:43:49:25:A4:52:C2:E1

    Signature Algorithm: sha1WithRSAEncryption
         b8:91:e6:4f:5a:6b:92:bc:56:6b:df:5f:bb:0c:3c:bd:d9:80:
         b9:1a:3f:9d:99:36:e7:83:0d:a8:5f:8c:86:06:3e:b3:67:bc:
         f4:d0:2e:38:cf:13:f0:81:16:98:d8:1c:fe:86:d0:2a:42:d4:
         96:e2:a7:03:8a:5f:3e:7a:da:59:bf:69:dd:a0:be:08:77:3d:
         e5:14:82:94:3c:1f:45:42:c3:cb:bf:dd:bf:b1:c9:b5:58:ec:
         e7:da:3d:3c:bc:05:02:35:80:e6:07:d5:19:1d:74:bc:e5:06:
         a7:77:0a:ea:62:c7:69:b6:8a:86:49:e3:b6:3d:ce:16:d8:c5:
         88:f0:94:ef:7f:04:84:0a:c1:6b:3d:1d:c7:9c:c7:b4:d1:82:
         38:e5:5a:88:6f:95:98:e9:17:9d:f4:29:ec:5b:c9:b0:19:1a:
         80:db:89:2f:1f:76:e6:61:7a:9f:92:10:e5:6d:c5:e1:bf:96:
         87:54:38:67:c6:4c:79:32:6c:d2:e0:03:b6:27:9a:aa:95:bb:
         bb:8f:4b:38:3b:3c:e0:a9:a6:b9:d4:00:71:97:e8:da:b0:6b:
         a7:94:92:be:f9:03:1f:5c:62:6f:ae:49:27:67:3c:b1:75:fb:
         2f:1d:95:50:ad:e0:14:0d:31:35:ae:1d:5f:cf:61:e6:13:f5:
         1c:75:c6:06:5f:66:40:23:d0:1a:c6:ee:2a:81:77:8e:79:ed:
         06:d3:89:e2:7c:9a:8a:51:17:6f:5d:2e:93:60:7c:31:10:e2:
         25:23:96:41:65:1a:9b:ca:3f:8c:0d:2b:7c:65:a0:26:2c:83:
         60:f8:2c:3c:d1:4c:27:3c:53:ca:96:d3:7e:b0:7a:dd:3f:b9:
         75:1f:c4:81:70:c4:77:25:18:f8:3c:e6:a0:7b:94:1e:ec:b7:
         77:99:99:3e:67:34:28:b9:28:56:8a:7c:8f:55:8a:56:21:c0:
         44:26:58:e0:84:3a:11:f1:b2:90:39:f0:38:2a:98:13:a8:21:
         d0:89:0d:ea:28:4a:33:27:82:56:b7:2a:b5:55:aa:40:0f:bc:
         bf:58:f5:f4:80:79:83:37:98:28:d4:e2:3b:4b:2a:15:a9:87:
         bc:9d:ea:94:33:af:d6:64:92:0c:e1:b0:f4:b9:1f:7f:99:75:
         5f:bd:a7:fb:13:b7:af:c0:c6:56:dc:96:2b:45:f7:ee:2c:f3:
         e0:27:a9:26:2e:bd:6c:0e:fc:f3:c9:3d:46:f5:f9:6c:89:73:
         f0:99:9f:de:1d:ca:61:ff:6f:5f:2d:56:9a:d5:2b:3f:c4:1f:
         aa:a1:b8:a3:15:cf:c0:3a:e9:a8:32:ba:d2:8b:b2:0d:cd:e3:
         50:cc:c4:df:35:0e:a6:68
-----BEGIN CERTIFICATE-----
MIIGUDCCBDigAwIBAgIBbjANBgkqhkiG9w0BAQUFADCBlDELMAkGA1UEBhMCVVMx
FTATBgNVBAgTDFBlbm5zeWx2YW5pYTETMBEGA1UEBxMKUGl0dHNidXJnaDEMMAoG
A1UEChMDQ01VMQ8wDQYDVQQLEwYxNS00NDExFjAUBgNVBAMTDTE1LTQ0MSBDTVUg
Q0ExIjAgBgkqhkiG9w0BCQEWE3N0YWYtNDQxQGNzLmNtdS5lZHUwHhcNMTYxMDEw
MDAxOTE4WhcNMTcxMDEwMDAxOTE4WjCBtDELMAkGA1UEBhMCVVMxFTATBgNVBAgT
DFBlbm5zeWx2YW5pYTETMBEGA1UEBxMKUGl0dHNidXJnaDEXMBUGA1UEChMOc2hh
b2t1bnogQ29ycC4xJTAjBgNVBAsTHHNoYW9rdW56IE9yZ2FuaXphdGlvbmFsIFVu
aXQxETAPBgNVBAMTCHNoYW9rdW56MSYwJAYJKoZIhvcNAQkBFhdzaGFva3VuekBh
bmRyZXcuY211LmVkdTCCAiIwDQYJKoZIhvcNAQEBBQADggIPADCCAgoCggIBAO1w
s0Kk20tCid5aZ9rxCN6rKQ/ZdeSd6w8qTNHBKkF8LkPGbavJA84pWp2e3HmbeOhX
dJXyczQMZmlsMSB6JO+p2n/WMq5JwkcbUtqNf08XuWb2MpBC9kItd0r/L32IChni
l41V1Ytri5nuAmlQIH/1RaZRQRJKVT3ETPfygFU+zL6SgWUYvtzbMcg12jrObf3y
uDq2Nl4RVoZvrnH69Lv7qe/1NYnkXolRRmkdil13glKDUbiF2PIWU7ZTITQRTumO
6cUxrnBcJlcvMoFfhHnLIFw1eApcU/GIOxY5d5WJKnnhNVyC123Ef9WRa09zGU/7
1s6EvFlJhczMlCSINYOCM1aFik7Zp1I484VGE8Qg9uDqzeakO6EzW0qZWNgpndiE
OM9E79lUtf7zy+lTTPLQRRojGIN2QaEmEyDrLdXgIRJXHyJRiWWcCvS+QvAs6V8L
Dvj1DzCRtFvx9xAWBKkiwJk6i2sH0YmpigMOPkA15t2BP5nZnxAVU2001wqkKbMu
JqhsWDysEqzCTVyX+FNyFwJyHzTvTwWl1+ORRy8FOmQMCbbX8g4/RFq3DB+2s2dw
hCN/F59KIWan9BpsBym45yWFpzEpng6CIIVFXSAn/eENAMO7OLw9Wp6ivnGFX3CY
kROyR/RkoFlwNtyTXJTq1kSzhk1c3zpL5GIgPmsdAgMBAAGjgYowgYcwCQYDVR0T
BAIwADA6BglghkgBhvhCAQ0ELRYrMTUtNDQxIENNVSBDQSBPcGVuU1NMIEdlbmVy
YXRlZCBDZXJ0aWZpY2F0ZTAdBgNVHQ4EFgQUf3GNypCoGD1LGlb5f4oz8MKkLC4w
HwYDVR0jBBgwFoAUiKSqXEhkzTQb/Z9p9kNJJaRSwuEwDQYJKoZIhvcNAQEFBQAD
ggIBALiR5k9aa5K8VmvfX7sMPL3ZgLkaP52ZNueDDahfjIYGPrNnvPTQLjjPE/CB
FpjYHP6G0CpC1JbipwOKXz562lm/ad2gvgh3PeUUgpQ8H0VCw8u/3b+xybVY7Ofa
PTy8BQI1gOYH1RkddLzlBqd3Cupix2m2ioZJ47Y9zhbYxYjwlO9/BIQKwWs9Hcec
x7TRgjjlWohvlZjpF530KexbybAZGoDbiS8fduZhep+SEOVtxeG/lodUOGfGTHky
bNLgA7YnmqqVu7uPSzg7POCpprnUAHGX6Nqwa6eUkr75Ax9cYm+uSSdnPLF1+y8d
lVCt4BQNMTWuHV/PYeYT9Rx1xgZfZkAj0BrG7iqBd4557QbTieJ8mopRF29dLpNg
fDEQ4iUjlkFlGpvKP4wNK3xloCYsg2D4LDzRTCc8U8qW036wet0/uXUfxIFwxHcl
GPg85qB7lB7st3eZmT5nNCi5KFaKfI9VilYhwEQmWOCEOhHxspA58DgqmBOoIdCJ
DeooSjMngla3KrVVqkAPvL9Y9fSAeYM3mCjU4jtLKhWph7yd6pQzr9ZkkgzhsPS5
H3+ZdV+9p/sTt6/AxlbclitF9+4s8+AnqSYuvWwO/PPJPUb1+WyJc/CZn94dymH/
b18tVprVKz/EH6qhuKMVz8A66agyutKLsg3N41DMxN81DqZo
-----END CERTIFICATE-----
